(dp0
Vengine
p1
S'pdflatex'
p2
sVpackages
p3
c__builtin__
set
p4
((lp5
Vhyperref
p6
aVxcolor
p7
aVbooktabs
p8
aVamsmath
p9
aVbm
p10
aVdcolumn
p11
aVfancyvrb
p12
aVinputenc
p13
aVamsthm
p14
aVnatbib
p15
aVbbding
p16
aVamsfonts
p17
aVtocbibind
p18
aVgraphicx
p19
aVparalist
p20
atp21
Rp22
sVfiles_with_guttermarks
p23
g4
((lp24
V/Users/tomasnovella/Desktop/diplomka/latex/example.tex
p25
aS'thesis.tex'
p26
atp27
Rp28
sVsynctex
p29
I01
s.