(dp0
Vengine
p1
S'pdflatex'
p2
sVpackages
p3
c__builtin__
set
p4
((lp5
Vhyperref
p6
aVxcolor
p7
aVbooktabs
p8
aVamsmath
p9
aVbm
p10
aVdcolumn
p11
aVfancyvrb
p12
aVamsthm
p13
aVparalist
p14
aVbbding
p15
aVtocbibind
p16
aVgraphicx
p17
aVamsfonts
p18
aVinputenc
p19
aVnatbib
p20
atp21
Rp22
sVfiles_with_guttermarks
p23
g4
((lp24
S'thesis.tex'
p25
atp26
Rp27
sVsynctex
p28
I01
s.